target datalayout = "e-m:e-p270:32:32-p271:32:32-p272:64:64-i64:64-i128:128-f80:128-n8:16:32:64-S128"
target triple = "x86_64-pc-linux-gnu"

%struct.hb_paint_funcs_t = type { %struct.hb_object_header_t, %struct.anon, ptr, ptr }
%struct.hb_object_header_t = type { %struct.hb_reference_count_t, %struct.hb_atomic_int_t, %struct.hb_atomic_ptr_t }
%struct.hb_reference_count_t = type { %struct.hb_atomic_int_t }
%struct.hb_atomic_int_t = type { i32 }
%struct.hb_atomic_ptr_t = type { ptr }
%struct.anon = type { ptr, ptr, ptr, ptr, ptr, ptr, ptr, ptr, ptr, ptr, ptr, ptr, ptr, ptr }
%struct.anon.1 = type { ptr, ptr, ptr, ptr, ptr, ptr, ptr, ptr, ptr, ptr, ptr, ptr, ptr, ptr }

; Function Attrs: mustprogress uwtable
define linkonce_odr hidden void @_ZN16hb_paint_funcs_t15push_clip_glyphEPvjP9hb_font_t(ptr noundef nonnull align 8 dereferenceable(144) %0, ptr noundef %1, i32 noundef %2, ptr noundef %3) #0 comdat align 2 {
  %5 = alloca ptr, align 8
  %6 = alloca ptr, align 8
  %7 = alloca i32, align 4
  %8 = alloca ptr, align 8
  store ptr %0, ptr %5, align 8
  store ptr %1, ptr %6, align 8
  store i32 %2, ptr %7, align 4
  store ptr %3, ptr %8, align 8
  %9 = load ptr, ptr %5, align 8
  %10 = getelementptr inbounds %struct.hb_paint_funcs_t, ptr %9, i32 0, i32 1
  %11 = getelementptr inbounds %struct.anon, ptr %10, i32 0, i32 3
  %12 = load ptr, ptr %11, align 8
  %13 = load ptr, ptr %6, align 8
  %14 = load i32, ptr %7, align 4
  %15 = load ptr, ptr %8, align 8
  %16 = getelementptr inbounds %struct.hb_paint_funcs_t, ptr %9, i32 0, i32 2
  %17 = load ptr, ptr %16, align 8
  %18 = icmp ne ptr %17, null
  br i1 %18, label %20, label %19

19:                                               ; preds = %4
  br label %25

20:                                               ; preds = %4
  %21 = getelementptr inbounds %struct.hb_paint_funcs_t, ptr %9, i32 0, i32 2
  %22 = load ptr, ptr %21, align 8
  %23 = getelementptr inbounds %struct.anon.1, ptr %22, i32 0, i32 3
  %24 = load ptr, ptr %23, align 8
  br label %25

25:                                               ; preds = %20, %19
  %26 = phi ptr [ null, %19 ], [ %24, %20 ]
  call void %12(ptr noundef %9, ptr noundef %13, i32 noundef %14, ptr noundef %15, ptr noundef %26)
  ret void
}

; Function Attrs: mustprogress uwtable
define hidden void @hb_paint_push_clip_glyph(ptr noundef %0, ptr noundef %1, i32 noundef %2, ptr noundef %3) #0 {
  %5 = alloca ptr, align 8
  %6 = alloca ptr, align 8
  %7 = alloca i32, align 4
  %8 = alloca ptr, align 8
  store ptr %0, ptr %5, align 8
  store ptr %1, ptr %6, align 8
  store i32 %2, ptr %7, align 4
  store ptr %3, ptr %8, align 8
  %9 = load ptr, ptr %5, align 8
  %10 = load ptr, ptr %6, align 8
  %11 = load i32, ptr %7, align 4
  %12 = load ptr, ptr %8, align 8
  call void @_ZN16hb_paint_funcs_t15push_clip_glyphEPvjP9hb_font_t(ptr noundef nonnull align 8 dereferenceable(144) %9, ptr noundef %10, i32 noundef %11, ptr noundef %12)
  ret void
}