; Function Attrs: mustprogress uwtable
define hidden void @hb_paint_push_clip_glyph(ptr noundef %0, ptr noundef %1, i32 noundef %2, ptr noundef %3) local_unnamed_addr #0 {
  %5 = getelementptr inbounds i8, ptr %0, i64 40
  %6 = load ptr, ptr %5, align 8
  %7 = getelementptr inbounds i8, ptr %0, i64 128
  %8 = load ptr, ptr %7, align 8
  %.not.i = icmp eq ptr %8, null
  br i1 %.not.i, label %_ZN16hb_paint_funcs_t15push_clip_glyphEPvjP9hb_font_t.exit, label %9

9:                                                ; preds = %4
  %10 = getelementptr inbounds i8, ptr %8, i64 24
  %11 = load ptr, ptr %10, align 8
  br label %_ZN16hb_paint_funcs_t15push_clip_glyphEPvjP9hb_font_t.exit

_ZN16hb_paint_funcs_t15push_clip_glyphEPvjP9hb_font_t.exit: ; preds = %4, %9
  %12 = phi ptr [ %11, %9 ], [ null, %4 ]
  tail call void %6(ptr noundef nonnull %0, ptr noundef %1, i32 noundef %2, ptr noundef %3, ptr noundef %12)
  ret void
}